target datalayout = "e-m:e-p270:32:32-p271:32:32-p272:64:64-i64:64-i128:128-f80:128-n8:16:32:64-S128"
target triple = "x86_64-pc-linux-gnu"

@hf_usb_hid_value = internal global i32 0, align 4
@hf_usb_hid_index = internal global i32 0, align 4
@hf_usb_hid_length = internal global i32 0, align 4
@hf_usb_hid_report_type = internal global i32 0, align 4
@hf_usb_hid_report_id = internal global i32 0, align 4
@ett_usb_hid_wValue = internal global i32 0, align 4

; Function Attrs: null_pointer_is_valid sspstrong uwtable
define internal void @dissect_usb_hid_get_report(ptr noundef %0, ptr noundef %1, ptr noundef %2, i32 noundef %3, i1 noundef zeroext %4, ptr noundef %5) #0 {
  %7 = alloca ptr, align 8
  %8 = alloca ptr, align 8
  %9 = alloca ptr, align 8
  %10 = alloca i32, align 4
  %11 = alloca i8, align 1
  %12 = alloca ptr, align 8
  %13 = alloca ptr, align 8
  %14 = alloca ptr, align 8
  %15 = alloca i32, align 4
  store ptr %0, ptr %7, align 8
  store ptr %1, ptr %8, align 8
  store ptr %2, ptr %9, align 8
  store i32 %3, ptr %10, align 4
  %16 = zext i1 %4 to i8
  store i8 %16, ptr %11, align 1
  store ptr %5, ptr %12, align 8
  call void @llvm.lifetime.start.p0(i64 8, ptr %13) #11
  call void @llvm.lifetime.start.p0(i64 8, ptr %14) #11
  %17 = load i8, ptr %11, align 1, !range !8, !noundef !9
  %18 = trunc i8 %17 to i1
  br i1 %18, label %20, label %19

19:                                               ; preds = %6
  store i32 1, ptr %15, align 4
  br label %55

20:                                               ; preds = %6
  %21 = load ptr, ptr %8, align 8
  %22 = load i32, ptr @hf_usb_hid_value, align 4
  %23 = load ptr, ptr %9, align 8
  %24 = load i32, ptr %10, align 4
  %25 = call ptr @proto_tree_add_item(ptr noundef %21, i32 noundef %22, ptr noundef %23, i32 noundef %24, i32 noundef 2, i32 noundef -2147483648)
  store ptr %25, ptr %13, align 8
  %26 = load ptr, ptr %13, align 8
  %27 = load i32, ptr @ett_usb_hid_wValue, align 4
  %28 = call ptr @proto_item_add_subtree(ptr noundef %26, i32 noundef %27)
  store ptr %28, ptr %14, align 8
  %29 = load ptr, ptr %14, align 8
  %30 = load i32, ptr @hf_usb_hid_report_id, align 4
  %31 = load ptr, ptr %9, align 8
  %32 = load i32, ptr %10, align 4
  %33 = call ptr @proto_tree_add_item(ptr noundef %29, i32 noundef %30, ptr noundef %31, i32 noundef %32, i32 noundef 1, i32 noundef -2147483648)
  %34 = load i32, ptr %10, align 4
  %35 = add i32 %34, 1
  store i32 %35, ptr %10, align 4
  %36 = load ptr, ptr %14, align 8
  %37 = load i32, ptr @hf_usb_hid_report_type, align 4
  %38 = load ptr, ptr %9, align 8
  %39 = load i32, ptr %10, align 4
  %40 = call ptr @proto_tree_add_item(ptr noundef %36, i32 noundef %37, ptr noundef %38, i32 noundef %39, i32 noundef 1, i32 noundef -2147483648)
  %41 = load i32, ptr %10, align 4
  %42 = add i32 %41, 1
  store i32 %42, ptr %10, align 4
  %43 = load ptr, ptr %8, align 8
  %44 = load i32, ptr @hf_usb_hid_index, align 4
  %45 = load ptr, ptr %9, align 8
  %46 = load i32, ptr %10, align 4
  %47 = call ptr @proto_tree_add_item(ptr noundef %43, i32 noundef %44, ptr noundef %45, i32 noundef %46, i32 noundef 2, i32 noundef -2147483648)
  %48 = load i32, ptr %10, align 4
  %49 = add i32 %48, 2
  store i32 %49, ptr %10, align 4
  %50 = load ptr, ptr %8, align 8
  %51 = load i32, ptr @hf_usb_hid_length, align 4
  %52 = load ptr, ptr %9, align 8
  %53 = load i32, ptr %10, align 4
  %54 = call ptr @proto_tree_add_item(ptr noundef %50, i32 noundef %51, ptr noundef %52, i32 noundef %53, i32 noundef 2, i32 noundef -2147483648)
  store i32 0, ptr %15, align 4
  br label %55

55:                                               ; preds = %20, %19
  call void @llvm.lifetime.end.p0(i64 8, ptr %14) #11
  call void @llvm.lifetime.end.p0(i64 8, ptr %13) #11
  %56 = load i32, ptr %15, align 4
  switch i32 %56, label %58 [
    i32 0, label %57
    i32 1, label %57
  ]

57:                                               ; preds = %55, %55
  ret void

58:                                               ; preds = %55
  unreachable
}