; Function Attrs: null_pointer_is_valid sspstrong uwtable
define internal void @dissect_usb_hid_get_report(ptr readnone captures(none) %0, ptr noundef %1, ptr noundef %2, i32 noundef %3, i1 noundef zeroext %4, ptr readnone captures(none) %5) #0 {
  br i1 %4, label %7, label %23

7:                                                ; preds = %6
  %8 = load i32, ptr @hf_usb_hid_value, align 4
  %9 = tail call ptr @proto_tree_add_item(ptr noundef %1, i32 noundef %8, ptr noundef %2, i32 noundef %3, i32 noundef 2, i32 noundef -2147483648)
  %10 = load i32, ptr @ett_usb_hid_wValue, align 4
  %11 = tail call ptr @proto_item_add_subtree(ptr noundef %9, i32 noundef %10)
  %12 = load i32, ptr @hf_usb_hid_report_id, align 4
  %13 = tail call ptr @proto_tree_add_item(ptr noundef %11, i32 noundef %12, ptr noundef %2, i32 noundef %3, i32 noundef 1, i32 noundef -2147483648)
  %14 = add i32 %3, 1
  %15 = load i32, ptr @hf_usb_hid_report_type, align 4
  %16 = tail call ptr @proto_tree_add_item(ptr noundef %11, i32 noundef %15, ptr noundef %2, i32 noundef %14, i32 noundef 1, i32 noundef -2147483648)
  %17 = add i32 %3, 2
  %18 = load i32, ptr @hf_usb_hid_index, align 4
  %19 = tail call ptr @proto_tree_add_item(ptr noundef %1, i32 noundef %18, ptr noundef %2, i32 noundef %17, i32 noundef 2, i32 noundef -2147483648)
  %20 = add i32 %3, 4
  %21 = load i32, ptr @hf_usb_hid_length, align 4
  %22 = tail call ptr @proto_tree_add_item(ptr noundef %1, i32 noundef %21, ptr noundef %2, i32 noundef %20, i32 noundef 2, i32 noundef -2147483648)
  br label %23

23:                                               ; preds = %6, %7
  ret void
}